target datalayout = "e-m:e-p270:32:32-p271:32:32-p272:64:64-i64:64-i128:128-f80:128-n8:16:32:64-S128"
target triple = "x86_64-pc-linux-gnu"

%struct.SparseMatrix_struct = type { i32, i32, i32, i32, i32, ptr, ptr, ptr, i32, i8, i64 }
%struct.Multilevel_Modularity_Clustering_struct = type { i32, i32, ptr, ptr, ptr, ptr, i8, ptr, double, double, ptr, i8 }

@stderr = external global ptr, align 8
@.str.3 = private unnamed_addr constant [58 x i8] c"integer overflow when trying to allocate %zu * %zu bytes\0A\00", align 1
@.str.4 = private unnamed_addr constant [49 x i8] c"out of memory when trying to allocate %zu bytes\0A\00", align 1

; Function Attrs: inlinehint nounwind uwtable
define internal ptr @gv_calloc(i64 noundef %0, i64 noundef %1) #3 {
  %3 = alloca i64, align 8
  %4 = alloca i64, align 8
  %5 = alloca ptr, align 8
  store i64 %0, ptr %3, align 8, !tbaa !40
  store i64 %1, ptr %4, align 8, !tbaa !40
  %6 = load i64, ptr %3, align 8, !tbaa !40
  %7 = icmp ugt i64 %6, 0
  br i1 %7, label %8, label %18

8:                                                ; preds = %2
  %9 = load i64, ptr %3, align 8, !tbaa !40
  %10 = udiv i64 -1, %9
  %11 = load i64, ptr %4, align 8, !tbaa !40
  %12 = icmp ult i64 %10, %11
  br i1 %12, label %13, label %18

13:                                               ; preds = %8
  %14 = load ptr, ptr @stderr, align 8, !tbaa !41
  %15 = load i64, ptr %3, align 8, !tbaa !40
  %16 = load i64, ptr %4, align 8, !tbaa !40
  %17 = call i32 (ptr, ptr, ...) @fprintf(ptr noundef %14, ptr noundef @.str.3, i64 noundef %15, i64 noundef %16) #9
  call void @graphviz_exit(i32 noundef 1) #10
  unreachable

18:                                               ; preds = %8, %2
  call void @llvm.lifetime.start.p0(i64 8, ptr %5) #9
  %19 = load i64, ptr %3, align 8, !tbaa !40
  %20 = load i64, ptr %4, align 8, !tbaa !40
  %21 = call noalias ptr @calloc(i64 noundef %19, i64 noundef %20) #11
  store ptr %21, ptr %5, align 8, !tbaa !43
  %22 = load i64, ptr %3, align 8, !tbaa !40
  %23 = icmp ugt i64 %22, 0
  br i1 %23, label %24, label %36

24:                                               ; preds = %18
  %25 = load i64, ptr %4, align 8, !tbaa !40
  %26 = icmp ugt i64 %25, 0
  br i1 %26, label %27, label %36

27:                                               ; preds = %24
  %28 = load ptr, ptr %5, align 8, !tbaa !43
  %29 = icmp eq ptr %28, null
  br i1 %29, label %30, label %36

30:                                               ; preds = %27
  %31 = load ptr, ptr @stderr, align 8, !tbaa !41
  %32 = load i64, ptr %3, align 8, !tbaa !40
  %33 = load i64, ptr %4, align 8, !tbaa !40
  %34 = mul i64 %32, %33
  %35 = call i32 (ptr, ptr, ...) @fprintf(ptr noundef %31, ptr noundef @.str.4, i64 noundef %34) #9
  call void @graphviz_exit(i32 noundef 1) #10
  unreachable

36:                                               ; preds = %27, %24, %18
  %37 = load ptr, ptr %5, align 8, !tbaa !43
  call void @llvm.lifetime.end.p0(i64 8, ptr %5) #9
  ret ptr %37
}

; Function Attrs: inlinehint nounwind uwtable
define internal ptr @gv_alloc(i64 noundef %0) #3 {
  %2 = alloca i64, align 8
  store i64 %0, ptr %2, align 8, !tbaa !40
  %3 = load i64, ptr %2, align 8, !tbaa !40
  %4 = call ptr @gv_calloc(i64 noundef 1, i64 noundef %3)
  ret ptr %4
}

; Function Attrs: nounwind uwtable
define internal ptr @Multilevel_Modularity_Clustering_init(ptr noundef %0, i32 noundef %1) #0 {
  %3 = alloca ptr, align 8
  %4 = alloca ptr, align 8
  %5 = alloca i32, align 4
  %6 = alloca i32, align 4
  %7 = alloca i32, align 4
  %8 = alloca i32, align 4
  %9 = alloca i32, align 4
  %10 = alloca ptr, align 8
  %11 = alloca double, align 8
  %12 = alloca ptr, align 8
  %13 = alloca ptr, align 8
  %14 = alloca double, align 8
  %15 = alloca ptr, align 8
  %16 = alloca ptr, align 8
  %17 = alloca ptr, align 8
  store ptr %0, ptr %4, align 8, !tbaa !3
  store i32 %1, ptr %5, align 4, !tbaa !10
  call void @llvm.lifetime.start.p0(i64 4, ptr %6) #9
  %18 = load ptr, ptr %4, align 8, !tbaa !3
  %19 = getelementptr inbounds nuw %struct.SparseMatrix_struct, ptr %18, i32 0, i32 1
  %20 = load i32, ptr %19, align 4, !tbaa !47
  store i32 %20, ptr %6, align 4, !tbaa !10
  call void @llvm.lifetime.start.p0(i64 4, ptr %7) #9
  call void @llvm.lifetime.start.p0(i64 4, ptr %8) #9
  %21 = load ptr, ptr %4, align 8, !tbaa !3
  %22 = icmp ne ptr %21, null
  br i1 %22, label %24, label %23

23:                                               ; preds = %2
  store ptr null, ptr %3, align 8
  store i32 1, ptr %9, align 4
  br label %195

24:                                               ; preds = %2
  call void @llvm.lifetime.start.p0(i64 8, ptr %10) #9
  %25 = call ptr @gv_alloc(i64 noundef 88)
  store ptr %25, ptr %10, align 8, !tbaa !25
  %26 = load i32, ptr %5, align 4, !tbaa !10
  %27 = load ptr, ptr %10, align 8, !tbaa !25
  %28 = getelementptr inbounds nuw %struct.Multilevel_Modularity_Clustering_struct, ptr %27, i32 0, i32 0
  store i32 %26, ptr %28, align 8, !tbaa !45
  %29 = load i32, ptr %6, align 4, !tbaa !10
  %30 = load ptr, ptr %10, align 8, !tbaa !25
  %31 = getelementptr inbounds nuw %struct.Multilevel_Modularity_Clustering_struct, ptr %30, i32 0, i32 1
  store i32 %29, ptr %31, align 4, !tbaa !31
  %32 = load ptr, ptr %4, align 8, !tbaa !3
  %33 = load ptr, ptr %10, align 8, !tbaa !25
  %34 = getelementptr inbounds nuw %struct.Multilevel_Modularity_Clustering_struct, ptr %33, i32 0, i32 2
  store ptr %32, ptr %34, align 8, !tbaa !44
  %35 = load ptr, ptr %10, align 8, !tbaa !25
  %36 = getelementptr inbounds nuw %struct.Multilevel_Modularity_Clustering_struct, ptr %35, i32 0, i32 3
  store ptr null, ptr %36, align 8, !tbaa !36
  %37 = load ptr, ptr %10, align 8, !tbaa !25
  %38 = getelementptr inbounds nuw %struct.Multilevel_Modularity_Clustering_struct, ptr %37, i32 0, i32 4
  store ptr null, ptr %38, align 8, !tbaa !27
  %39 = load ptr, ptr %10, align 8, !tbaa !25
  %40 = getelementptr inbounds nuw %struct.Multilevel_Modularity_Clustering_struct, ptr %39, i32 0, i32 5
  store ptr null, ptr %40, align 8, !tbaa !35
  %41 = load ptr, ptr %10, align 8, !tbaa !25
  %42 = getelementptr inbounds nuw %struct.Multilevel_Modularity_Clustering_struct, ptr %41, i32 0, i32 6
  store i8 0, ptr %42, align 8, !tbaa !39
  %43 = load i32, ptr %6, align 4, !tbaa !10
  %44 = sext i32 %43 to i64
  %45 = call ptr @gv_calloc(i64 noundef %44, i64 noundef 8)
  %46 = load ptr, ptr %10, align 8, !tbaa !25
  %47 = getelementptr inbounds nuw %struct.Multilevel_Modularity_Clustering_struct, ptr %46, i32 0, i32 7
  store ptr %45, ptr %47, align 8, !tbaa !32
  %48 = load ptr, ptr %10, align 8, !tbaa !25
  %49 = getelementptr inbounds nuw %struct.Multilevel_Modularity_Clustering_struct, ptr %48, i32 0, i32 10
  store ptr null, ptr %49, align 8, !tbaa !46
  %50 = load ptr, ptr %10, align 8, !tbaa !25
  %51 = getelementptr inbounds nuw %struct.Multilevel_Modularity_Clustering_struct, ptr %50, i32 0, i32 11
  store i8 0, ptr %51, align 8, !tbaa !48
  %52 = load i32, ptr %5, align 4, !tbaa !10
  %53 = icmp eq i32 %52, 0
  br i1 %53, label %54, label %193

54:                                               ; preds = %24
  call void @llvm.lifetime.start.p0(i64 8, ptr %11) #9
  store double 0.000000e+00, ptr %11, align 8, !tbaa !23
  call void @llvm.lifetime.start.p0(i64 8, ptr %12) #9
  %55 = load ptr, ptr %4, align 8, !tbaa !3
  %56 = getelementptr inbounds nuw %struct.SparseMatrix_struct, ptr %55, i32 0, i32 5
  %57 = load ptr, ptr %56, align 8, !tbaa !49
  store ptr %57, ptr %12, align 8, !tbaa !12
  call void @llvm.lifetime.start.p0(i64 8, ptr %13) #9
  %58 = load ptr, ptr %4, align 8, !tbaa !3
  %59 = getelementptr inbounds nuw %struct.SparseMatrix_struct, ptr %58, i32 0, i32 6
  %60 = load ptr, ptr %59, align 8, !tbaa !50
  store ptr %60, ptr %13, align 8, !tbaa !12
  call void @llvm.lifetime.start.p0(i64 8, ptr %14) #9
  store double 0.000000e+00, ptr %14, align 8, !tbaa !23
  call void @llvm.lifetime.start.p0(i64 8, ptr %15) #9
  call void @llvm.lifetime.start.p0(i64 8, ptr %16) #9
  %61 = load ptr, ptr %4, align 8, !tbaa !3
  %62 = getelementptr inbounds nuw %struct.SparseMatrix_struct, ptr %61, i32 0, i32 7
  %63 = load ptr, ptr %62, align 8, !tbaa !51
  store ptr %63, ptr %16, align 8, !tbaa !16
  %64 = load ptr, ptr %10, align 8, !tbaa !25
  %65 = getelementptr inbounds nuw %struct.Multilevel_Modularity_Clustering_struct, ptr %64, i32 0, i32 9
  store double 0.000000e+00, ptr %65, align 8, !tbaa !52
  %66 = load i32, ptr %6, align 4, !tbaa !10
  %67 = sext i32 %66 to i64
  %68 = call ptr @gv_calloc(i64 noundef %67, i64 noundef 8)
  %69 = load ptr, ptr %10, align 8, !tbaa !25
  %70 = getelementptr inbounds nuw %struct.Multilevel_Modularity_Clustering_struct, ptr %69, i32 0, i32 10
  store ptr %68, ptr %70, align 8, !tbaa !46
  %71 = load ptr, ptr %10, align 8, !tbaa !25
  %72 = getelementptr inbounds nuw %struct.Multilevel_Modularity_Clustering_struct, ptr %71, i32 0, i32 10
  %73 = load ptr, ptr %72, align 8, !tbaa !46
  store ptr %73, ptr %15, align 8, !tbaa !16
  call void @llvm.lifetime.start.p0(i64 8, ptr %17) #9
  %74 = load i32, ptr %6, align 4, !tbaa !10
  %75 = sext i32 %74 to i64
  %76 = call ptr @gv_calloc(i64 noundef %75, i64 noundef 8)
  store ptr %76, ptr %17, align 8, !tbaa !16
  store i32 0, ptr %7, align 4, !tbaa !10
  br label %77

77:                                               ; preds = %145, %54
  %78 = load i32, ptr %7, align 4, !tbaa !10
  %79 = load i32, ptr %6, align 4, !tbaa !10
  %80 = icmp slt i32 %78, %79
  br i1 %80, label %81, label %148

81:                                               ; preds = %77
  %82 = load ptr, ptr %15, align 8, !tbaa !16
  %83 = load i32, ptr %7, align 4, !tbaa !10
  %84 = sext i32 %83 to i64
  %85 = getelementptr inbounds double, ptr %82, i64 %84
  store double 0.000000e+00, ptr %85, align 8, !tbaa !23
  %86 = load ptr, ptr %17, align 8, !tbaa !16
  %87 = load i32, ptr %7, align 4, !tbaa !10
  %88 = sext i32 %87 to i64
  %89 = getelementptr inbounds double, ptr %86, i64 %88
  store double 0.000000e+00, ptr %89, align 8, !tbaa !23
  %90 = load ptr, ptr %12, align 8, !tbaa !12
  %91 = load i32, ptr %7, align 4, !tbaa !10
  %92 = sext i32 %91 to i64
  %93 = getelementptr inbounds i32, ptr %90, i64 %92
  %94 = load i32, ptr %93, align 4, !tbaa !10
  store i32 %94, ptr %8, align 4, !tbaa !10
  br label %95

95:                                               ; preds = %134, %81
  %96 = load i32, ptr %8, align 4, !tbaa !10
  %97 = load ptr, ptr %12, align 8, !tbaa !12
  %98 = load i32, ptr %7, align 4, !tbaa !10
  %99 = add nsw i32 %98, 1
  %100 = sext i32 %99 to i64
  %101 = getelementptr inbounds i32, ptr %97, i64 %100
  %102 = load i32, ptr %101, align 4, !tbaa !10
  %103 = icmp slt i32 %96, %102
  br i1 %103, label %104, label %137

104:                                              ; preds = %95
  %105 = load ptr, ptr %16, align 8, !tbaa !16
  %106 = load i32, ptr %8, align 4, !tbaa !10
  %107 = sext i32 %106 to i64
  %108 = getelementptr inbounds double, ptr %105, i64 %107
  %109 = load double, ptr %108, align 8, !tbaa !23
  %110 = load ptr, ptr %15, align 8, !tbaa !16
  %111 = load i32, ptr %7, align 4, !tbaa !10
  %112 = sext i32 %111 to i64
  %113 = getelementptr inbounds double, ptr %110, i64 %112
  %114 = load double, ptr %113, align 8, !tbaa !23
  %115 = fadd double %114, %109
  store double %115, ptr %113, align 8, !tbaa !23
  %116 = load ptr, ptr %13, align 8, !tbaa !12
  %117 = load i32, ptr %8, align 4, !tbaa !10
  %118 = sext i32 %117 to i64
  %119 = getelementptr inbounds i32, ptr %116, i64 %118
  %120 = load i32, ptr %119, align 4, !tbaa !10
  %121 = load i32, ptr %7, align 4, !tbaa !10
  %122 = icmp eq i32 %120, %121
  br i1 %122, label %123, label %133

123:                                              ; preds = %104
  %124 = load ptr, ptr %16, align 8, !tbaa !16
  %125 = load i32, ptr %8, align 4, !tbaa !10
  %126 = sext i32 %125 to i64
  %127 = getelementptr inbounds double, ptr %124, i64 %126
  %128 = load double, ptr %127, align 8, !tbaa !23
  %129 = load ptr, ptr %17, align 8, !tbaa !16
  %130 = load i32, ptr %7, align 4, !tbaa !10
  %131 = sext i32 %130 to i64
  %132 = getelementptr inbounds double, ptr %129, i64 %131
  store double %128, ptr %132, align 8, !tbaa !23
  br label %133

133:                                              ; preds = %123, %104
  br label %134

134:                                              ; preds = %133
  %135 = load i32, ptr %8, align 4, !tbaa !10
  %136 = add nsw i32 %135, 1
  store i32 %136, ptr %8, align 4, !tbaa !10
  br label %95, !llvm.loop !53

137:                                              ; preds = %95
  %138 = load ptr, ptr %15, align 8, !tbaa !16
  %139 = load i32, ptr %7, align 4, !tbaa !10
  %140 = sext i32 %139 to i64
  %141 = getelementptr inbounds double, ptr %138, i64 %140
  %142 = load double, ptr %141, align 8, !tbaa !23
  %143 = load double, ptr %14, align 8, !tbaa !23
  %144 = fadd double %143, %142
  store double %144, ptr %14, align 8, !tbaa !23
  br label %145

145:                                              ; preds = %137
  %146 = load i32, ptr %7, align 4, !tbaa !10
  %147 = add nsw i32 %146, 1
  store i32 %147, ptr %7, align 4, !tbaa !10
  br label %77, !llvm.loop !54

148:                                              ; preds = %77
  %149 = load double, ptr %14, align 8, !tbaa !23
  %150 = call double @llvm.maxnum.f64(double %149, double 1.000000e+00)
  store double %150, ptr %14, align 8, !tbaa !23
  store i32 0, ptr %7, align 4, !tbaa !10
  br label %151

151:                                              ; preds = %179, %148
  %152 = load i32, ptr %7, align 4, !tbaa !10
  %153 = load i32, ptr %6, align 4, !tbaa !10
  %154 = icmp slt i32 %152, %153
  br i1 %154, label %155, label %182

155:                                              ; preds = %151
  %156 = load ptr, ptr %17, align 8, !tbaa !16
  %157 = load i32, ptr %7, align 4, !tbaa !10
  %158 = sext i32 %157 to i64
  %159 = getelementptr inbounds double, ptr %156, i64 %158
  %160 = load double, ptr %159, align 8, !tbaa !23
  %161 = load ptr, ptr %15, align 8, !tbaa !16
  %162 = load i32, ptr %7, align 4, !tbaa !10
  %163 = sext i32 %162 to i64
  %164 = getelementptr inbounds double, ptr %161, i64 %163
  %165 = load double, ptr %164, align 8, !tbaa !23
  %166 = load ptr, ptr %15, align 8, !tbaa !16
  %167 = load i32, ptr %7, align 4, !tbaa !10
  %168 = sext i32 %167 to i64
  %169 = getelementptr inbounds double, ptr %166, i64 %168
  %170 = load double, ptr %169, align 8, !tbaa !23
  %171 = fmul double %165, %170
  %172 = load double, ptr %14, align 8, !tbaa !23
  %173 = fdiv double %171, %172
  %174 = fsub double %160, %173
  %175 = load double, ptr %14, align 8, !tbaa !23
  %176 = fdiv double %174, %175
  %177 = load double, ptr %11, align 8, !tbaa !23
  %178 = fadd double %177, %176
  store double %178, ptr %11, align 8, !tbaa !23
  br label %179

179:                                              ; preds = %155
  %180 = load i32, ptr %7, align 4, !tbaa !10
  %181 = add nsw i32 %180, 1
  store i32 %181, ptr %7, align 4, !tbaa !10
  br label %151, !llvm.loop !55

182:                                              ; preds = %151
  %183 = load double, ptr %14, align 8, !tbaa !23
  %184 = load ptr, ptr %10, align 8, !tbaa !25
  %185 = getelementptr inbounds nuw %struct.Multilevel_Modularity_Clustering_struct, ptr %184, i32 0, i32 9
  store double %183, ptr %185, align 8, !tbaa !52
  %186 = load ptr, ptr %15, align 8, !tbaa !16
  %187 = load ptr, ptr %10, align 8, !tbaa !25
  %188 = getelementptr inbounds nuw %struct.Multilevel_Modularity_Clustering_struct, ptr %187, i32 0, i32 10
  store ptr %186, ptr %188, align 8, !tbaa !46
  %189 = load double, ptr %11, align 8, !tbaa !23
  %190 = load ptr, ptr %10, align 8, !tbaa !25
  %191 = getelementptr inbounds nuw %struct.Multilevel_Modularity_Clustering_struct, ptr %190, i32 0, i32 8
  store double %189, ptr %191, align 8, !tbaa !34
  %192 = load ptr, ptr %17, align 8, !tbaa !16
  call void @free(ptr noundef %192) #9
  call void @llvm.lifetime.end.p0(i64 8, ptr %17) #9
  call void @llvm.lifetime.end.p0(i64 8, ptr %16) #9
  call void @llvm.lifetime.end.p0(i64 8, ptr %15) #9
  call void @llvm.lifetime.end.p0(i64 8, ptr %14) #9
  call void @llvm.lifetime.end.p0(i64 8, ptr %13) #9
  call void @llvm.lifetime.end.p0(i64 8, ptr %12) #9
  call void @llvm.lifetime.end.p0(i64 8, ptr %11) #9
  br label %193

193:                                              ; preds = %182, %24
  %194 = load ptr, ptr %10, align 8, !tbaa !25
  store ptr %194, ptr %3, align 8
  store i32 1, ptr %9, align 4
  call void @llvm.lifetime.end.p0(i64 8, ptr %10) #9
  br label %195

195:                                              ; preds = %193, %23
  call void @llvm.lifetime.end.p0(i64 4, ptr %8) #9
  call void @llvm.lifetime.end.p0(i64 4, ptr %7) #9
  call void @llvm.lifetime.end.p0(i64 4, ptr %6) #9
  %196 = load ptr, ptr %3, align 8
  ret ptr %196
}