; Function Attrs: nounwind uwtable
define internal fastcc noalias noundef ptr @Multilevel_Modularity_Clustering_init(ptr noundef %0, i32 noundef range(i32 -2147483647, -2147483648) %1) unnamed_addr #0 {
  %3 = getelementptr inbounds nuw i8, ptr %0, i64 4
  %4 = load i32, ptr %3, align 4, !tbaa !40
  %5 = tail call noalias dereferenceable_or_null(88) ptr @calloc(i64 noundef 1, i64 noundef 88) #14
  %6 = icmp eq ptr %5, null
  br i1 %6, label %7, label %gv_alloc.exit

7:                                                ; preds = %2
  %8 = load ptr, ptr @stderr, align 8, !tbaa !23
  %9 = tail call i32 (ptr, ptr, ...) @fprintf(ptr noundef %8, ptr noundef nonnull @.str.4, i64 noundef 88) #12
  tail call fastcc void @graphviz_exit() #13
  unreachable

gv_alloc.exit:                                    ; preds = %2
  store i32 %1, ptr %5, align 8, !tbaa !36
  %10 = getelementptr inbounds nuw i8, ptr %5, i64 4
  store i32 %4, ptr %10, align 4, !tbaa !22
  %11 = getelementptr inbounds nuw i8, ptr %5, i64 8
  store ptr %0, ptr %11, align 8, !tbaa !35
  %12 = sext i32 %4 to i64
  %.not.i = icmp eq i32 %4, 0
  br i1 %.not.i, label %.thread.i, label %14

.thread.i:                                        ; preds = %gv_alloc.exit
  %13 = tail call noalias ptr @calloc(i64 noundef 0, i64 noundef 8) #14
  br label %gv_calloc.exit

14:                                               ; preds = %gv_alloc.exit
  %mul.ov.i = icmp slt i32 %4, 0
  br i1 %mul.ov.i, label %15, label %18

15:                                               ; preds = %14
  %16 = load ptr, ptr @stderr, align 8, !tbaa !23
  %17 = tail call i32 (ptr, ptr, ...) @fprintf(ptr noundef %16, ptr noundef nonnull @.str.3, i64 noundef range(i64 -2147483648, 2147483648) %12, i64 noundef 8) #12
  tail call fastcc void @graphviz_exit() #13
  unreachable

18:                                               ; preds = %14
  %19 = tail call noalias ptr @calloc(i64 noundef range(i64 -2147483648, 2147483648) %12, i64 noundef 8) #14
  %20 = icmp eq ptr %19, null
  br i1 %20, label %21, label %gv_calloc.exit

21:                                               ; preds = %18
  %22 = load ptr, ptr @stderr, align 8, !tbaa !23
  %23 = shl nuw nsw i64 %12, 3
  %24 = tail call i32 (ptr, ptr, ...) @fprintf(ptr noundef %22, ptr noundef nonnull @.str.4, i64 noundef %23) #12
  tail call fastcc void @graphviz_exit() #13
  unreachable

gv_calloc.exit:                                   ; preds = %.thread.i, %18
  %25 = phi ptr [ %13, %.thread.i ], [ %19, %18 ]
  %26 = getelementptr inbounds nuw i8, ptr %5, i64 48
  store ptr %25, ptr %26, align 8, !tbaa !25
  %27 = getelementptr inbounds nuw i8, ptr %5, i64 72
  store ptr null, ptr %27, align 8, !tbaa !39
  %28 = getelementptr inbounds nuw i8, ptr %5, i64 80
  store i8 0, ptr %28, align 8, !tbaa !41
  %29 = icmp eq i32 %1, 0
  br i1 %29, label %30, label %88

30:                                               ; preds = %gv_calloc.exit
  %31 = getelementptr inbounds nuw i8, ptr %0, i64 24
  %32 = load ptr, ptr %31, align 8, !tbaa !42
  %33 = getelementptr inbounds nuw i8, ptr %0, i64 32
  %34 = load ptr, ptr %33, align 8, !tbaa !43
  %35 = getelementptr inbounds nuw i8, ptr %0, i64 40
  %36 = load ptr, ptr %35, align 8, !tbaa !44
  %37 = getelementptr inbounds nuw i8, ptr %5, i64 64
  br i1 %.not.i, label %._crit_edge95.thread, label %38

38:                                               ; preds = %30
  %39 = tail call noalias ptr @calloc(i64 noundef range(i64 -2147483648, 2147483648) %12, i64 noundef 8) #14
  %40 = icmp eq ptr %39, null
  br i1 %40, label %41, label %45

41:                                               ; preds = %38
  %42 = load ptr, ptr @stderr, align 8, !tbaa !23
  %43 = shl nuw nsw i64 %12, 3
  %44 = tail call i32 (ptr, ptr, ...) @fprintf(ptr noundef %42, ptr noundef nonnull @.str.4, i64 noundef %43) #12
  tail call fastcc void @graphviz_exit() #13
  unreachable

45:                                               ; preds = %38
  %46 = tail call noalias ptr @calloc(i64 noundef range(i64 -2147483648, 2147483648) %12, i64 noundef 8) #14
  %47 = icmp eq ptr %46, null
  br i1 %47, label %48, label %.lr.ph94.preheader

48:                                               ; preds = %45
  %49 = load ptr, ptr @stderr, align 8, !tbaa !23
  %50 = shl nuw nsw i64 %12, 3
  %51 = tail call i32 (ptr, ptr, ...) @fprintf(ptr noundef %49, ptr noundef nonnull @.str.4, i64 noundef %50) #12
  tail call fastcc void @graphviz_exit() #13
  unreachable

._crit_edge95.thread:                             ; preds = %30
  %52 = tail call noalias ptr @calloc(i64 noundef 0, i64 noundef 8) #14
  %53 = tail call noalias ptr @calloc(i64 noundef 0, i64 noundef 8) #14
  br label %._crit_edge100

.lr.ph94.preheader:                               ; preds = %45
  %wide.trip.count107 = zext nneg i32 %4 to i64
  %.pre = load i32, ptr %32, align 4, !tbaa !26
  br label %.lr.ph94

.lr.ph94:                                         ; preds = %.lr.ph94.preheader, %._crit_edge
  %54 = phi i32 [ %.pre, %.lr.ph94.preheader ], [ %58, %._crit_edge ]
  %indvars.iv104 = phi i64 [ 0, %.lr.ph94.preheader ], [ %indvars.iv.next105, %._crit_edge ]
  %.07592 = phi double [ 0.000000e+00, %.lr.ph94.preheader ], [ %73, %._crit_edge ]
  %55 = getelementptr inbounds nuw double, ptr %39, i64 %indvars.iv104
  store double 0.000000e+00, ptr %55, align 8, !tbaa !12
  %56 = getelementptr inbounds nuw double, ptr %46, i64 %indvars.iv104
  store double 0.000000e+00, ptr %56, align 8, !tbaa !12
  %indvars.iv.next105 = add nuw nsw i64 %indvars.iv104, 1
  %57 = getelementptr inbounds nuw i32, ptr %32, i64 %indvars.iv.next105
  %58 = load i32, ptr %57, align 4, !tbaa !26
  %59 = icmp slt i32 %54, %58
  br i1 %59, label %.lr.ph, label %._crit_edge

.lr.ph:                                           ; preds = %.lr.ph94
  %60 = sext i32 %54 to i64
  %wide.trip.count = sext i32 %58 to i64
  br label %61

61:                                               ; preds = %.lr.ph, %71
  %indvars.iv = phi i64 [ %60, %.lr.ph ], [ %indvars.iv.next, %71 ]
  %62 = phi double [ 0.000000e+00, %.lr.ph ], [ %65, %71 ]
  %63 = getelementptr inbounds double, ptr %36, i64 %indvars.iv
  %64 = load double, ptr %63, align 8, !tbaa !12
  %65 = fadd double %64, %62
  store double %65, ptr %55, align 8, !tbaa !12
  %66 = getelementptr inbounds i32, ptr %34, i64 %indvars.iv
  %67 = load i32, ptr %66, align 4, !tbaa !26
  %68 = zext i32 %67 to i64
  %69 = icmp eq i64 %indvars.iv104, %68
  br i1 %69, label %70, label %71

70:                                               ; preds = %61
  store double %64, ptr %56, align 8, !tbaa !12
  br label %71

71:                                               ; preds = %61, %70
  %indvars.iv.next = add nsw i64 %indvars.iv, 1
  %exitcond.not = icmp eq i64 %indvars.iv.next, %wide.trip.count
  br i1 %exitcond.not, label %._crit_edge, label %61, !llvm.loop !45

._crit_edge:                                      ; preds = %71, %.lr.ph94
  %72 = phi double [ 0.000000e+00, %.lr.ph94 ], [ %65, %71 ]
  %73 = fadd double %.07592, %72
  %exitcond108.not = icmp eq i64 %indvars.iv.next105, %wide.trip.count107
  br i1 %exitcond108.not, label %._crit_edge95, label %.lr.ph94, !llvm.loop !46

._crit_edge95:                                    ; preds = %._crit_edge
  %74 = tail call double @llvm.maxnum.f64(double %73, double 1.000000e+00)
  %wide.trip.count112 = zext nneg i32 %4 to i64
  br label %.lr.ph99

.lr.ph99:                                         ; preds = %._crit_edge95, %.lr.ph99
  %indvars.iv109 = phi i64 [ 0, %._crit_edge95 ], [ %indvars.iv.next110, %.lr.ph99 ]
  %.07696 = phi double [ 0.000000e+00, %._crit_edge95 ], [ %83, %.lr.ph99 ]
  %75 = getelementptr inbounds nuw double, ptr %46, i64 %indvars.iv109
  %76 = load double, ptr %75, align 8, !tbaa !12
  %77 = getelementptr inbounds nuw double, ptr %39, i64 %indvars.iv109
  %78 = load double, ptr %77, align 8, !tbaa !12
  %79 = fmul double %78, %78
  %80 = fdiv double %79, %74
  %81 = fsub double %76, %80
  %82 = fdiv double %81, %74
  %83 = fadd double %.07696, %82
  %indvars.iv.next110 = add nuw nsw i64 %indvars.iv109, 1
  %exitcond113.not = icmp eq i64 %indvars.iv.next110, %wide.trip.count112
  br i1 %exitcond113.not, label %._crit_edge100, label %.lr.ph99, !llvm.loop !47

._crit_edge100:                                   ; preds = %.lr.ph99, %._crit_edge95.thread
  %84 = phi double [ 1.000000e+00, %._crit_edge95.thread ], [ %74, %.lr.ph99 ]
  %85 = phi ptr [ %52, %._crit_edge95.thread ], [ %39, %.lr.ph99 ]
  %86 = phi ptr [ %53, %._crit_edge95.thread ], [ %46, %.lr.ph99 ]
  %.076.lcssa = phi double [ 0.000000e+00, %._crit_edge95.thread ], [ %83, %.lr.ph99 ]
  store double %84, ptr %37, align 8, !tbaa !48
  store ptr %85, ptr %27, align 8, !tbaa !39
  %87 = getelementptr inbounds nuw i8, ptr %5, i64 56
  store double %.076.lcssa, ptr %87, align 8, !tbaa !28
  tail call void @free(ptr noundef %86) #11
  br label %88

88:                                               ; preds = %gv_calloc.exit, %._crit_edge100
  ret ptr %5
}